target datalayout = "e-m:e-p270:32:32-p271:32:32-p272:64:64-i64:64-i128:128-f80:128-n8:16:32:64-S128"
target triple = "x86_64-pc-linux-gnu"

%class.ScanTree = type { [1024 x ptr], i32, i32, ptr, i32, i8, i32, i32, i8, [2048 x i32], [2048 x i32], %class.StringList, %class.StringList, ptr, ptr, i8, i8, i64, [2048 x i32], ptr }
%class.StringList = type { %class.Array, i64, i64, [16 x i64], i64 }
%class.Array = type { ptr, i64, i64, i64 }

@.str = private unnamed_addr constant [2 x i32] [i32 42, i32 0], align 4
@.str.1 = private unnamed_addr constant [4 x i32] [i32 42, i32 46, i32 42, i32 0], align 4

; Function Attrs: mustprogress nounwind uwtable
define linkonce_odr noundef i64 @_ZN10StringList10ItemsCountEv(ptr noundef nonnull align 8 dereferenceable(184) %0) #4 comdat align 2 {
  %2 = alloca ptr, align 8
  store ptr %0, ptr %2, align 8, !tbaa !8
  %3 = load ptr, ptr %2, align 8
  %4 = getelementptr inbounds nuw %class.StringList, ptr %3, i32 0, i32 2
  %5 = load i64, ptr %4, align 8, !tbaa !61
  ret i64 %5
}

; Function Attrs: mustprogress uwtable
define noundef zeroext i1 @_ZN8ScanTree15GetFilteredMaskEv(ptr noundef nonnull align 8 dereferenceable(33216) %0) #0 align 2 {
  %2 = alloca i1, align 1
  %3 = alloca ptr, align 8
  %4 = alloca i8, align 1
  %5 = alloca i32, align 4
  %6 = alloca i32, align 4
  %7 = alloca i32, align 4
  %8 = alloca i32, align 4
  %9 = alloca i32, align 4
  %10 = alloca [2048 x i32], align 16
  %11 = alloca ptr, align 8
  %12 = alloca ptr, align 8
  %13 = alloca i8, align 1
  store ptr %0, ptr %3, align 8, !tbaa !3
  %14 = load ptr, ptr %3, align 8
  %15 = getelementptr inbounds nuw %class.ScanTree, ptr %14, i32 0, i32 11
  %16 = call noundef i64 @_ZN10StringList10ItemsCountEv(ptr noundef nonnull align 8 dereferenceable(184) %15)
  %17 = icmp ugt i64 %16, 0
  br i1 %17, label %18, label %24

18:                                               ; preds = %1
  %19 = getelementptr inbounds nuw %class.ScanTree, ptr %14, i32 0, i32 11
  %20 = getelementptr inbounds nuw %class.ScanTree, ptr %14, i32 0, i32 9
  %21 = getelementptr inbounds [2048 x i32], ptr %20, i64 0, i64 0
  %22 = call noundef zeroext i1 @_ZN10StringList9GetStringEPwm(ptr noundef nonnull align 8 dereferenceable(184) %19, ptr noundef %21, i64 noundef 2048)
  br i1 %22, label %23, label %24

23:                                               ; preds = %18
  store i1 true, ptr %2, align 1
  br label %179

24:                                               ; preds = %18, %1
  %25 = getelementptr inbounds nuw %class.ScanTree, ptr %14, i32 0, i32 15
  store i8 0, ptr %25, align 8, !tbaa !31
  %26 = getelementptr inbounds nuw %class.ScanTree, ptr %14, i32 0, i32 12
  call void @_ZN10StringList5ResetEv(ptr noundef nonnull align 8 dereferenceable(184) %26)
  %27 = getelementptr inbounds nuw %class.ScanTree, ptr %14, i32 0, i32 3
  %28 = load ptr, ptr %27, align 8, !tbaa !16
  %29 = getelementptr inbounds nuw %class.ScanTree, ptr %14, i32 0, i32 9
  %30 = getelementptr inbounds [2048 x i32], ptr %29, i64 0, i64 0
  %31 = call noundef zeroext i1 @_ZN10StringList9GetStringEPwm(ptr noundef nonnull align 8 dereferenceable(184) %28, ptr noundef %30, i64 noundef 2048)
  br i1 %31, label %33, label %32

32:                                               ; preds = %24
  store i1 false, ptr %2, align 1
  br label %179

33:                                               ; preds = %24
  call void @llvm.lifetime.start.p0(i64 1, ptr %4) #12
  store i8 0, ptr %4, align 1, !tbaa !12
  call void @llvm.lifetime.start.p0(i64 4, ptr %5) #12
  store i32 0, ptr %5, align 4, !tbaa !40
  call void @llvm.lifetime.start.p0(i64 4, ptr %6) #12
  store i32 0, ptr %6, align 4, !tbaa !40
  call void @llvm.lifetime.start.p0(i64 4, ptr %7) #12
  store i32 0, ptr %7, align 4, !tbaa !40
  call void @llvm.lifetime.start.p0(i64 4, ptr %8) #12
  %34 = load i32, ptr %7, align 4, !tbaa !40
  store i32 %34, ptr %8, align 4, !tbaa !40
  br label %35

35:                                               ; preds = %85, %33
  %36 = getelementptr inbounds nuw %class.ScanTree, ptr %14, i32 0, i32 9
  %37 = load i32, ptr %8, align 4, !tbaa !40
  %38 = zext i32 %37 to i64
  %39 = getelementptr inbounds nuw [2048 x i32], ptr %36, i64 0, i64 %38
  %40 = load i32, ptr %39, align 4, !tbaa !33
  %41 = icmp ne i32 %40, 0
  br i1 %41, label %43, label %42

42:                                               ; preds = %35
  call void @llvm.lifetime.end.p0(i64 4, ptr %8) #12
  br label %88

43:                                               ; preds = %35
  %44 = getelementptr inbounds nuw %class.ScanTree, ptr %14, i32 0, i32 9
  %45 = load i32, ptr %8, align 4, !tbaa !40
  %46 = zext i32 %45 to i64
  %47 = getelementptr inbounds nuw [2048 x i32], ptr %44, i64 0, i64 %46
  %48 = load i32, ptr %47, align 4, !tbaa !33
  %49 = icmp eq i32 %48, 63
  br i1 %49, label %57, label %50

50:                                               ; preds = %43
  %51 = getelementptr inbounds nuw %class.ScanTree, ptr %14, i32 0, i32 9
  %52 = load i32, ptr %8, align 4, !tbaa !40
  %53 = zext i32 %52 to i64
  %54 = getelementptr inbounds nuw [2048 x i32], ptr %51, i64 0, i64 %53
  %55 = load i32, ptr %54, align 4, !tbaa !33
  %56 = icmp eq i32 %55, 42
  br i1 %56, label %57, label %58

57:                                               ; preds = %50, %43
  store i8 1, ptr %4, align 1, !tbaa !12
  br label %58

58:                                               ; preds = %57, %50
  %59 = getelementptr inbounds nuw %class.ScanTree, ptr %14, i32 0, i32 9
  %60 = load i32, ptr %8, align 4, !tbaa !40
  %61 = zext i32 %60 to i64
  %62 = getelementptr inbounds nuw [2048 x i32], ptr %59, i64 0, i64 %61
  %63 = load i32, ptr %62, align 4, !tbaa !33
  %64 = call noundef zeroext i1 @_Z9IsPathDivi(i32 noundef %63)
  br i1 %64, label %72, label %65

65:                                               ; preds = %58
  %66 = getelementptr inbounds nuw %class.ScanTree, ptr %14, i32 0, i32 9
  %67 = load i32, ptr %8, align 4, !tbaa !40
  %68 = zext i32 %67 to i64
  %69 = getelementptr inbounds nuw [2048 x i32], ptr %66, i64 0, i64 %68
  %70 = load i32, ptr %69, align 4, !tbaa !33
  %71 = call noundef zeroext i1 @_Z10IsDriveDivi(i32 noundef %70)
  br i1 %71, label %72, label %84

72:                                               ; preds = %65, %58
  %73 = load i8, ptr %4, align 1, !tbaa !12, !range !26, !noundef !27
  %74 = trunc i8 %73 to i1
  br i1 %74, label %75, label %78

75:                                               ; preds = %72
  %76 = load i32, ptr %5, align 4, !tbaa !40
  %77 = add i32 %76, 1
  store i32 %77, ptr %5, align 4, !tbaa !40
  store i8 0, ptr %4, align 1, !tbaa !12
  br label %78

78:                                               ; preds = %75, %72
  %79 = load i32, ptr %5, align 4, !tbaa !40
  %80 = icmp eq i32 %79, 0
  br i1 %80, label %81, label %83

81:                                               ; preds = %78
  %82 = load i32, ptr %8, align 4, !tbaa !40
  store i32 %82, ptr %6, align 4, !tbaa !40
  br label %83

83:                                               ; preds = %81, %78
  br label %84

84:                                               ; preds = %83, %65
  br label %85

85:                                               ; preds = %84
  %86 = load i32, ptr %8, align 4, !tbaa !40
  %87 = add i32 %86, 1
  store i32 %87, ptr %8, align 4, !tbaa !40
  br label %35, !llvm.loop !64

88:                                               ; preds = %42
  %89 = load i32, ptr %5, align 4, !tbaa !40
  %90 = icmp eq i32 %89, 0
  br i1 %90, label %91, label %92

91:                                               ; preds = %88
  store i1 true, ptr %2, align 1
  store i32 1, ptr %9, align 4
  br label %178

92:                                               ; preds = %88
  %93 = getelementptr inbounds nuw %class.ScanTree, ptr %14, i32 0, i32 15
  store i8 1, ptr %93, align 8, !tbaa !31
  %94 = getelementptr inbounds nuw %class.ScanTree, ptr %14, i32 0, i32 4
  %95 = load i32, ptr %94, align 8, !tbaa !25
  %96 = icmp eq i32 %95, 0
  br i1 %96, label %101, label %97

97:                                               ; preds = %92
  %98 = getelementptr inbounds nuw %class.ScanTree, ptr %14, i32 0, i32 4
  %99 = load i32, ptr %98, align 8, !tbaa !25
  %100 = icmp eq i32 %99, 1
  br i1 %100, label %101, label %106

101:                                              ; preds = %97, %92
  %102 = load i32, ptr %5, align 4, !tbaa !40
  %103 = icmp eq i32 %102, 1
  br i1 %103, label %104, label %106

104:                                              ; preds = %101
  %105 = call noundef zeroext i1 @_ZN8ScanTree16ExpandFolderMaskEv(ptr noundef nonnull align 8 dereferenceable(33216) %14)
  store i1 %105, ptr %2, align 1
  store i32 1, ptr %9, align 4
  br label %178

106:                                              ; preds = %101, %97
  call void @llvm.lifetime.start.p0(i64 8192, ptr %10) #12
  %107 = getelementptr inbounds [2048 x i32], ptr %10, i64 0, i64 0
  call void @_Z8wcsncpyzPwPKwm(ptr noundef %107, ptr noundef @.str, i64 noundef 2048)
  %108 = getelementptr inbounds [2048 x i32], ptr %10, i64 0, i64 0
  call void @_Z11AddEndSlashPwm(ptr noundef %108, i64 noundef 2048)
  call void @llvm.lifetime.start.p0(i64 8, ptr %11) #12
  %109 = getelementptr inbounds nuw %class.ScanTree, ptr %14, i32 0, i32 9
  %110 = load i32, ptr %6, align 4, !tbaa !40
  %111 = zext i32 %110 to i64
  %112 = getelementptr inbounds nuw [2048 x i32], ptr %109, i64 0, i64 %111
  %113 = load i32, ptr %112, align 4, !tbaa !33
  %114 = call noundef zeroext i1 @_Z9IsPathDivi(i32 noundef %113)
  br i1 %114, label %122, label %115

115:                                              ; preds = %106
  %116 = getelementptr inbounds nuw %class.ScanTree, ptr %14, i32 0, i32 9
  %117 = load i32, ptr %6, align 4, !tbaa !40
  %118 = zext i32 %117 to i64
  %119 = getelementptr inbounds nuw [2048 x i32], ptr %116, i64 0, i64 %118
  %120 = load i32, ptr %119, align 4, !tbaa !33
  %121 = call noundef zeroext i1 @_Z10IsDriveDivi(i32 noundef %120)
  br i1 %121, label %122, label %129

122:                                              ; preds = %115, %106
  %123 = getelementptr inbounds nuw %class.ScanTree, ptr %14, i32 0, i32 9
  %124 = getelementptr inbounds [2048 x i32], ptr %123, i64 0, i64 0
  %125 = load i32, ptr %6, align 4, !tbaa !40
  %126 = zext i32 %125 to i64
  %127 = getelementptr inbounds nuw i32, ptr %124, i64 %126
  %128 = getelementptr inbounds i32, ptr %127, i64 1
  br label %135

129:                                              ; preds = %115
  %130 = getelementptr inbounds nuw %class.ScanTree, ptr %14, i32 0, i32 9
  %131 = getelementptr inbounds [2048 x i32], ptr %130, i64 0, i64 0
  %132 = load i32, ptr %6, align 4, !tbaa !40
  %133 = zext i32 %132 to i64
  %134 = getelementptr inbounds nuw i32, ptr %131, i64 %133
  br label %135

135:                                              ; preds = %129, %122
  %136 = phi ptr [ %128, %122 ], [ %134, %129 ]
  store ptr %136, ptr %11, align 8, !tbaa !53
  %137 = getelementptr inbounds [2048 x i32], ptr %10, i64 0, i64 0
  %138 = load ptr, ptr %11, align 8, !tbaa !53
  call void @_Z8wcsncatzPwPKwm(ptr noundef %137, ptr noundef %138, i64 noundef 2048)
  call void @llvm.lifetime.start.p0(i64 8, ptr %12) #12
  %139 = getelementptr inbounds [2048 x i32], ptr %10, i64 0, i64 0
  %140 = call noundef ptr @_Z11PointToNamePKw(ptr noundef %139)
  store ptr %140, ptr %12, align 8, !tbaa !53
  %141 = load ptr, ptr %12, align 8, !tbaa !53
  %142 = call i32 @wcscmp(ptr noundef %141, ptr noundef @.str) #14
  %143 = icmp eq i32 %142, 0
  br i1 %143, label %148, label %144

144:                                              ; preds = %135
  %145 = load ptr, ptr %12, align 8, !tbaa !53
  %146 = call i32 @wcscmp(ptr noundef %145, ptr noundef @.str.1) #14
  %147 = icmp eq i32 %146, 0
  br i1 %147, label %148, label %150

148:                                              ; preds = %144, %135
  %149 = load ptr, ptr %12, align 8, !tbaa !53
  store i32 0, ptr %149, align 4, !tbaa !33
  br label %150

150:                                              ; preds = %148, %144
  %151 = getelementptr inbounds nuw %class.ScanTree, ptr %14, i32 0, i32 12
  %152 = getelementptr inbounds [2048 x i32], ptr %10, i64 0, i64 0
  call void @_ZN10StringList9AddStringEPKw(ptr noundef nonnull align 8 dereferenceable(184) %151, ptr noundef %152)
  call void @llvm.lifetime.start.p0(i64 1, ptr %13) #12
  %153 = getelementptr inbounds nuw %class.ScanTree, ptr %14, i32 0, i32 9
  %154 = load i32, ptr %6, align 4, !tbaa !40
  %155 = zext i32 %154 to i64
  %156 = getelementptr inbounds nuw [2048 x i32], ptr %153, i64 0, i64 %155
  %157 = load i32, ptr %156, align 4, !tbaa !33
  %158 = call noundef zeroext i1 @_Z10IsDriveDivi(i32 noundef %157)
  %159 = zext i1 %158 to i8
  store i8 %159, ptr %13, align 1, !tbaa !12
  %160 = load i8, ptr %13, align 1, !tbaa !12, !range !26, !noundef !27
  %161 = trunc i8 %160 to i1
  br i1 %161, label %162, label %165

162:                                              ; preds = %150
  %163 = load i32, ptr %6, align 4, !tbaa !40
  %164 = add i32 %163, 1
  store i32 %164, ptr %6, align 4, !tbaa !40
  br label %165

165:                                              ; preds = %162, %150
  %166 = getelementptr inbounds nuw %class.ScanTree, ptr %14, i32 0, i32 9
  %167 = load i32, ptr %6, align 4, !tbaa !40
  %168 = zext i32 %167 to i64
  %169 = getelementptr inbounds nuw [2048 x i32], ptr %166, i64 0, i64 %168
  store i32 0, ptr %169, align 4, !tbaa !33
  %170 = load i8, ptr %13, align 1, !tbaa !12, !range !26, !noundef !27
  %171 = trunc i8 %170 to i1
  br i1 %171, label %177, label %172

172:                                              ; preds = %165
  %173 = getelementptr inbounds nuw %class.ScanTree, ptr %14, i32 0, i32 9
  %174 = getelementptr inbounds [2048 x i32], ptr %173, i64 0, i64 0
  call void @_Z11AddEndSlashPwm(ptr noundef %174, i64 noundef 2048)
  %175 = getelementptr inbounds nuw %class.ScanTree, ptr %14, i32 0, i32 9
  %176 = getelementptr inbounds [2048 x i32], ptr %175, i64 0, i64 0
  call void @_Z8wcsncatzPwPKwm(ptr noundef %176, ptr noundef @.str, i64 noundef 2048)
  br label %177

177:                                              ; preds = %172, %165
  store i1 true, ptr %2, align 1
  store i32 1, ptr %9, align 4
  call void @llvm.lifetime.end.p0(i64 1, ptr %13) #12
  call void @llvm.lifetime.end.p0(i64 8, ptr %12) #12
  call void @llvm.lifetime.end.p0(i64 8, ptr %11) #12
  call void @llvm.lifetime.end.p0(i64 8192, ptr %10) #12
  br label %178

178:                                              ; preds = %177, %104, %91
  call void @llvm.lifetime.end.p0(i64 4, ptr %7) #12
  call void @llvm.lifetime.end.p0(i64 4, ptr %6) #12
  call void @llvm.lifetime.end.p0(i64 4, ptr %5) #12
  call void @llvm.lifetime.end.p0(i64 1, ptr %4) #12
  br label %179

179:                                              ; preds = %178, %32, %23
  %180 = load i1, ptr %2, align 1
  ret i1 %180
}