; Function Attrs: mustprogress uwtable
define noundef zeroext i1 @_ZN8ScanTree15GetFilteredMaskEv(ptr noundef nonnull align 8 dereferenceable(33216) %0) local_unnamed_addr #0 align 2 {
  %2 = alloca [2048 x i32], align 16
  %3 = getelementptr inbounds nuw i8, ptr %0, i64 24656
  %4 = load i64, ptr %3, align 8, !tbaa !39
  %.not = icmp eq i64 %4, 0
  br i1 %.not, label %9, label %5

5:                                                ; preds = %1
  %6 = getelementptr inbounds nuw i8, ptr %0, i64 24616
  %7 = getelementptr inbounds nuw i8, ptr %0, i64 8228
  %8 = tail call noundef zeroext i1 @_ZN10StringList9GetStringEPwm(ptr noundef nonnull align 8 dereferenceable(184) %6, ptr noundef nonnull %7, i64 noundef 2048)
  br i1 %8, label %69, label %9

9:                                                ; preds = %5, %1
  %10 = getelementptr inbounds nuw i8, ptr %0, i64 25000
  store i8 0, ptr %10, align 8, !tbaa !42
  %11 = getelementptr inbounds nuw i8, ptr %0, i64 24800
  tail call void @_ZN10StringList5ResetEv(ptr noundef nonnull align 8 dereferenceable(184) %11)
  %12 = getelementptr inbounds nuw i8, ptr %0, i64 8200
  %13 = load ptr, ptr %12, align 8, !tbaa !3
  %14 = getelementptr inbounds nuw i8, ptr %0, i64 8228
  %15 = tail call noundef zeroext i1 @_ZN10StringList9GetStringEPwm(ptr noundef nonnull align 8 dereferenceable(184) %13, ptr noundef nonnull %14, i64 noundef 2048)
  br i1 %15, label %.preheader, label %69

.preheader:                                       ; preds = %9, %30
  %.035 = phi i32 [ %.136, %30 ], [ 0, %9 ]
  %.034 = phi i32 [ %31, %30 ], [ 0, %9 ]
  %.031 = phi i32 [ %.233, %30 ], [ 0, %9 ]
  %.029 = phi i8 [ %.3, %30 ], [ 0, %9 ]
  %16 = zext i32 %.034 to i64
  %17 = getelementptr inbounds nuw [2048 x i32], ptr %14, i64 0, i64 %16
  %18 = load i32, ptr %17, align 4, !tbaa !23
  switch i32 %18, label %22 [
    i32 0, label %19
    i32 63, label %21
    i32 42, label %21
  ]

19:                                               ; preds = %.preheader
  %20 = icmp eq i32 %.031, 0
  br i1 %20, label %69, label %32

21:                                               ; preds = %.preheader, %.preheader
  br label %22

22:                                               ; preds = %.preheader, %21
  %.130 = phi i8 [ 1, %21 ], [ %.029, %.preheader ]
  %23 = tail call noundef zeroext i1 @_Z9IsPathDivi(i32 noundef %18)
  br i1 %23, label %27, label %24

24:                                               ; preds = %22
  %25 = load i32, ptr %17, align 4, !tbaa !23
  %26 = tail call noundef zeroext i1 @_Z10IsDriveDivi(i32 noundef %25)
  br i1 %26, label %27, label %30

27:                                               ; preds = %24, %22
  %.mask = and i8 %.130, 1
  %28 = zext nneg i8 %.mask to i32
  %spec.select = add i32 %.031, %28
  %29 = icmp eq i32 %spec.select, 0
  %spec.select43 = select i1 %29, i32 %.034, i32 %.035
  br label %30

30:                                               ; preds = %27, %24
  %.136 = phi i32 [ %.035, %24 ], [ %spec.select43, %27 ]
  %.233 = phi i32 [ %.031, %24 ], [ %spec.select, %27 ]
  %.3 = phi i8 [ %.130, %24 ], [ 0, %27 ]
  %31 = add i32 %.034, 1
  br label %.preheader, !llvm.loop !58

32:                                               ; preds = %19
  store i8 1, ptr %10, align 8, !tbaa !42
  %33 = getelementptr inbounds nuw i8, ptr %0, i64 8208
  %34 = load i32, ptr %33, align 8, !tbaa !19
  %35 = icmp eq i32 %34, 0
  br i1 %35, label %39, label %36

36:                                               ; preds = %32
  %37 = icmp eq i32 %34, 1
  %38 = icmp eq i32 %.031, 1
  %or.cond = select i1 %37, i1 %38, i1 false
  br i1 %or.cond, label %40, label %42

39:                                               ; preds = %32
  %.old1 = icmp eq i32 %.031, 1
  br i1 %.old1, label %40, label %42

40:                                               ; preds = %36, %39
  %41 = tail call noundef zeroext i1 @_ZN8ScanTree16ExpandFolderMaskEv(ptr noundef nonnull align 8 dereferenceable(33216) %0)
  br label %69

42:                                               ; preds = %39, %36
  call void @llvm.lifetime.start.p0(i64 8192, ptr nonnull %2) #13
  call void @_Z8wcsncpyzPwPKwm(ptr noundef nonnull %2, ptr noundef nonnull @.str, i64 noundef 2048)
  call void @_Z11AddEndSlashPwm(ptr noundef nonnull %2, i64 noundef 2048)
  %43 = zext i32 %.035 to i64
  %44 = getelementptr inbounds nuw [2048 x i32], ptr %14, i64 0, i64 %43
  %45 = load i32, ptr %44, align 4, !tbaa !23
  %46 = call noundef zeroext i1 @_Z9IsPathDivi(i32 noundef %45)
  br i1 %46, label %50, label %47

47:                                               ; preds = %42
  %48 = load i32, ptr %44, align 4, !tbaa !23
  %49 = call noundef zeroext i1 @_Z10IsDriveDivi(i32 noundef %48)
  br i1 %49, label %50, label %52

50:                                               ; preds = %47, %42
  %51 = getelementptr inbounds nuw i8, ptr %44, i64 4
  br label %52

52:                                               ; preds = %47, %50
  %53 = phi ptr [ %51, %50 ], [ %44, %47 ]
  call void @_Z8wcsncatzPwPKwm(ptr noundef nonnull %2, ptr noundef nonnull %53, i64 noundef 2048)
  %54 = call noundef ptr @_Z11PointToNamePKw(ptr noundef nonnull %2)
  %55 = call i32 @wcscmp(ptr noundef %54, ptr noundef nonnull @.str) #15
  %56 = icmp eq i32 %55, 0
  br i1 %56, label %60, label %57

57:                                               ; preds = %52
  %58 = call i32 @wcscmp(ptr noundef %54, ptr noundef nonnull @.str.1) #15
  %59 = icmp eq i32 %58, 0
  br i1 %59, label %60, label %61

60:                                               ; preds = %57, %52
  store i32 0, ptr %54, align 4, !tbaa !23
  br label %61

61:                                               ; preds = %60, %57
  call void @_ZN10StringList9AddStringEPKw(ptr noundef nonnull align 8 dereferenceable(184) %11, ptr noundef nonnull %2)
  %62 = load i32, ptr %44, align 4, !tbaa !23
  %63 = call noundef zeroext i1 @_Z10IsDriveDivi(i32 noundef %62)
  %64 = zext i1 %63 to i32
  %spec.select42 = add i32 %.035, %64
  %65 = zext i32 %spec.select42 to i64
  %66 = getelementptr inbounds nuw [2048 x i32], ptr %14, i64 0, i64 %65
  store i32 0, ptr %66, align 4, !tbaa !23
  br i1 %63, label %68, label %67

67:                                               ; preds = %61
  call void @_Z11AddEndSlashPwm(ptr noundef nonnull %14, i64 noundef 2048)
  call void @_Z8wcsncatzPwPKwm(ptr noundef nonnull %14, ptr noundef nonnull @.str, i64 noundef 2048)
  br label %68

68:                                               ; preds = %67, %61
  call void @llvm.lifetime.end.p0(i64 8192, ptr nonnull %2) #13
  br label %69

69:                                               ; preds = %40, %68, %19, %9, %5
  %.0 = phi i1 [ true, %5 ], [ false, %9 ], [ %41, %40 ], [ true, %68 ], [ true, %19 ]
  ret i1 %.0
}